; Function Attrs: nounwind uwtable
define zeroext range(i8 0, 2) i8 @l_Lean_Meta_Grind_Arith_Cutsat_inDiseqValues(ptr noundef %0, ptr noundef readonly captures(none) %1) local_unnamed_addr #1 {
  %3 = tail call ptr @l_Lean_Meta_Grind_Arith_Cutsat_findDiseq_x3f(ptr noundef %0, ptr noundef %1)
  %4 = ptrtoint ptr %3 to i64
  %5 = and i64 %4, 1
  %.not.i6 = icmp eq i64 %5, 0
  br i1 %.not.i6, label %lean_obj_tag.exit.thread, label %lean_obj_tag.exit

lean_obj_tag.exit:                                ; preds = %2
  %6 = and i64 %4, 8589934590
  %7 = icmp ne i64 %6, 0
  %spec.select = zext i1 %7 to i8
  br label %lean_dec.exit

lean_obj_tag.exit.thread:                         ; preds = %2
  %8 = getelementptr i8, ptr %3, i64 4
  %.val.i = load i32, ptr %8, align 4
  %9 = icmp ult i32 %.val.i, 16777216
  br i1 %9, label %lean_dec.exit, label %.thread

.thread:                                          ; preds = %lean_obj_tag.exit.thread
  %10 = load i32, ptr %3, align 4, !tbaa !6
  %11 = icmp sgt i32 %10, 1
  br i1 %11, label %12, label %14, !prof !5

12:                                               ; preds = %.thread
  %13 = add nsw i32 %10, -1
  store i32 %13, ptr %3, align 4, !tbaa !6
  br label %lean_dec.exit

14:                                               ; preds = %.thread
  %.not.i = icmp eq i32 %10, 0
  br i1 %.not.i, label %lean_dec.exit, label %15

15:                                               ; preds = %14
  tail call void @lean_dec_ref_cold(ptr noundef nonnull %3) #6
  br label %lean_dec.exit

lean_dec.exit:                                    ; preds = %lean_obj_tag.exit, %12, %14, %15, %lean_obj_tag.exit.thread
  %.0 = phi i8 [ 0, %lean_obj_tag.exit.thread ], [ 1, %15 ], [ 1, %14 ], [ 1, %12 ], [ %spec.select, %lean_obj_tag.exit ]
  ret i8 %.0
}